(dp1
S'Commodity,Sides'
p2
(dp3
I26
S'GeneralAffiliation.APORA_Affiliate,GeneralAffiliation.APORA_Affiliation'
p4
ssS'GPE,LOC'
p5
(dp6
I19
S'GeneralAffiliation.Sponsorship_Entity,GeneralAffiliation.Sponsorship_Sponsor'
p7
ssS'FAC,VEH'
p8
(dp9
I14
S'Physical.LocatedNear_Place,Physical.LocatedNear_Entity'
p10
ssS'NumericalValue,LOC'
p11
(dp12
I28
S'Measurement.Count_Count,Measurement.Count_Item'
p13
ssS'FAC,Commodity'
p14
(dp15
I14
S'Physical.LocatedNear_Place,Physical.LocatedNear_Entity'
p16
ssS'LOC,NumericalValue'
p17
(dp18
I28
S'Measurement.Count_Item,Measurement.Count_Count'
p19
ssS'Sides,ORG'
p20
(dp21
I16
S'GeneralAffiliation.OPRA_Affiliation,GeneralAffiliation.OPRA_Organization'
p22
sI19
S'GeneralAffiliation.Sponsorship_Sponsor,GeneralAffiliation.Sponsorship_Entity'
p23
ssS'FAC,NumericalValue'
p24
(dp25
I28
S'Measurement.Count_Item,Measurement.Count_Count'
p26
ssS'PER,NumericalValue'
p27
(dp28
I28
S'Measurement.Count_Item,Measurement.Count_Count'
p29
ssS'PER,Sides'
p30
(dp31
I1
S'GeneralAffiliation.MORE_Person,GeneralAffiliation.MORE_Affiliation'
p32
ssS'LOC,GPE'
p33
(dp34
I19
S'GeneralAffiliation.Sponsorship_Sponsor,GeneralAffiliation.Sponsorship_Entity'
p35
ssS'GPE,NumericalValue'
p36
(dp37
I28
S'Measurement.Count_Item,Measurement.Count_Count'
p38
ssS'FAC,LOC'
p39
(dp40
I26
S'GeneralAffiliation.APORA_Affiliate,GeneralAffiliation.APORA_Affiliation'
p41
sI14
S'Physical.LocatedNear_Entity,Physical.LocatedNear_Place'
p42
ssS'WEA,ORG'
p43
(dp44
I26
S'GeneralAffiliation.APORA_Affiliate,GeneralAffiliation.APORA_Affiliation'
p45
ssS'URL,ORG'
p46
(dp47
I17
S'GeneralAffiliation.OrganizationWebsite_Website,GeneralAffiliation.OrganizationWebsite_Organization'
p48
ssS'LOC,FAC'
p49
(dp50
I26
S'GeneralAffiliation.APORA_Affiliation,GeneralAffiliation.APORA_Affiliate'
p51
sI14
S'Physical.LocatedNear_Place,Physical.LocatedNear_Entity'
p52
ssS'WEA,LOC'
p53
(dp54
I26
S'GeneralAffiliation.APORA_Affiliate,GeneralAffiliation.APORA_Affiliation'
p55
sI14
S'Physical.LocatedNear_Entity,Physical.LocatedNear_Place'
p56
ssS'Sides,Commodity'
p57
(dp58
I26
S'GeneralAffiliation.APORA_Affiliation,GeneralAffiliation.APORA_Affiliate'
p59
ssS'NumericalValue,ORG'
p60
(dp61
I28
S'Measurement.Count_Count,Measurement.Count_Item'
p62
ssS'VEH,ORG'
p63
(dp64
I26
S'GeneralAffiliation.APORA_Affiliate,GeneralAffiliation.APORA_Affiliation'
p65
ssS'GPE,WEA'
p66
(dp67
I26
S'GeneralAffiliation.APORA_Affiliation,GeneralAffiliation.APORA_Affiliate'
p68
sI14
S'Physical.LocatedNear_Place,Physical.LocatedNear_Entity'
p69
ssS'GPE,FAC'
p70
(dp71
I26
S'GeneralAffiliation.APORA_Affiliation,GeneralAffiliation.APORA_Affiliate'
p72
sI14
S'Physical.LocatedNear_Place,Physical.LocatedNear_Entity'
p73
ssS'Commodity,GPE'
p74
(dp75
I26
S'GeneralAffiliation.APORA_Affiliate,GeneralAffiliation.APORA_Affiliation'
p76
sI14
S'Physical.LocatedNear_Entity,Physical.LocatedNear_Place'
p77
ssS'Sides,GPE'
p78
(dp79
I19
S'GeneralAffiliation.Sponsorship_Sponsor,GeneralAffiliation.Sponsorship_Entity'
p80
ssS'Sides,VEH'
p81
(dp82
I26
S'GeneralAffiliation.APORA_Affiliation,GeneralAffiliation.APORA_Affiliate'
p83
ssS'ORG,NumericalValue'
p84
(dp85
I28
S'Measurement.Count_Item,Measurement.Count_Count'
p86
ssS'VEH,FAC'
p87
(dp88
I14
S'Physical.LocatedNear_Entity,Physical.LocatedNear_Place'
p89
ssS'NumericalValue,VEH'
p90
(dp91
I28
S'Measurement.Count_Count,Measurement.Count_Item'
p92
ssS'Commodity,PER'
p93
(dp94
I26
S'GeneralAffiliation.APORA_Affiliate,GeneralAffiliation.APORA_Affiliation'
p95
ssS'LOC,PER'
p96
(dp97
I1
S'GeneralAffiliation.MORE_Affiliation,GeneralAffiliation.MORE_Person'
p98
sI13
S'Physical.Resident_Place,Physical.Resident_Resident'
p99
sI14
S'Physical.LocatedNear_Place,Physical.LocatedNear_Entity'
p100
ssS'PER,Commodity'
p101
(dp102
I26
S'GeneralAffiliation.APORA_Affiliation,GeneralAffiliation.APORA_Affiliate'
p103
ssS'ORG,PER'
p104
(dp105
I3
S'OrganizationAffiliation.EmploymentMembership_Organization,OrganizationAffiliation.EmploymentMembership_Employee'
p106
sI4
S'OrganizationAffiliation.Ownership_Organization,OrganizationAffiliation.Ownership_Owner'
p107
sI5
S'OrganizationAffiliation.Founder_Organization,OrganizationAffiliation.Founder_Founder'
p108
sI6
S'OrganizationAffiliation.InvestorShareholder_Organization,OrganizationAffiliation.InvestorShareholder_InvestorShareholder'
p109
sI7
S'OrganizationAffiliation.StudentAlum_Organization,OrganizationAffiliation.StudentAlum_StudentAlum'
p110
sI15
S'OrganizationAffiliation.Leadership_Organization,OrganizationAffiliation.Leadership_Leader'
p111
sI16
S'GeneralAffiliation.OPRA_Organization,GeneralAffiliation.OPRA_Affiliation'
p112
ssS'FAC,FAC'
p113
(dp114
I14
S'Physical.LocatedNear_Place,Physical.LocatedNear_Entity'
p115
ssS'NumericalValue,WEA'
p116
(dp117
I28
S'Measurement.Count_Count,Measurement.Count_Item'
p118
ssS'ORG,ORG'
p119
(dp120
I5
S'OrganizationAffiliation.Founder_Organization,OrganizationAffiliation.Founder_Founder'
p121
sI6
S'OrganizationAffiliation.InvestorShareholder_Organization,OrganizationAffiliation.InvestorShareholder_InvestorShareholder'
p122
sI8
S'PartWhole.Subsidiary_Subsidiary,PartWhole.Subsidiary_Parent'
p123
sI16
S'GeneralAffiliation.OPRA_Organization,GeneralAffiliation.OPRA_Affiliation'
p124
sI19
S'GeneralAffiliation.Sponsorship_Sponsor,GeneralAffiliation.Sponsorship_Entity'
p125
sI22
S'PartWhole.Membership_Organization,PartWhole.Membership_Member'
p126
ssS'WEA,PER'
p127
(dp128
I26
S'GeneralAffiliation.APORA_Affiliate,GeneralAffiliation.APORA_Affiliation'
p129
ssS'WEA,FAC'
p130
(dp131
I14
S'Physical.LocatedNear_Entity,Physical.LocatedNear_Place'
p132
ssS'WEA,GPE'
p133
(dp134
I26
S'GeneralAffiliation.APORA_Affiliate,GeneralAffiliation.APORA_Affiliation'
p135
sI14
S'Physical.LocatedNear_Entity,Physical.LocatedNear_Place'
p136
ssS'VEH,NumericalValue'
p137
(dp138
I28
S'Measurement.Count_Item,Measurement.Count_Count'
p139
ssS'GPE,VEH'
p140
(dp141
I26
S'GeneralAffiliation.APORA_Affiliation,GeneralAffiliation.APORA_Affiliate'
p142
sI14
S'Physical.LocatedNear_Place,Physical.LocatedNear_Entity'
p143
ssS'PER,Age'
p144
(dp145
I18
S'GeneralAffiliation.PersonAge_Person,GeneralAffiliation.PersonAge_Age'
p146
ssS'PER,PER'
p147
(dp148
I1
S'GeneralAffiliation.MORE_Person,GeneralAffiliation.MORE_Affiliation'
p149
ssS'PER,FAC'
p150
(dp151
I26
S'GeneralAffiliation.APORA_Affiliation,GeneralAffiliation.APORA_Affiliate'
p152
sI13
S'Physical.Resident_Resident,Physical.Resident_Place'
p153
sI14
S'Physical.LocatedNear_Entity,Physical.LocatedNear_Place'
p154
ssS'NumericalValue,GPE'
p155
(dp156
I28
S'Measurement.Count_Count,Measurement.Count_Item'
p157
ssS'PER,GPE'
p158
(dp159
I1
S'GeneralAffiliation.MORE_Person,GeneralAffiliation.MORE_Affiliation'
p160
sI3
S'OrganizationAffiliation.EmploymentMembership_Employee,OrganizationAffiliation.EmploymentMembership_Organization'
p161
sI13
S'Physical.Resident_Resident,Physical.Resident_Place'
p162
sI14
S'Physical.LocatedNear_Entity,Physical.LocatedNear_Place'
p163
sI15
S'OrganizationAffiliation.Leadership_Leader,OrganizationAffiliation.Leadership_Organization'
p164
ssS'Commodity,LOC'
p165
(dp166
I26
S'GeneralAffiliation.APORA_Affiliate,GeneralAffiliation.APORA_Affiliation'
p167
sI14
S'Physical.LocatedNear_Entity,Physical.LocatedNear_Place'
p168
ssS'LOC,ORG'
p169
(dp170
I27
S'Physical.OrganizationLocationOrigin_Place,Physical.OrganizationLocationOrigin_Organization'
p171
sI19
S'GeneralAffiliation.Sponsorship_Entity,GeneralAffiliation.Sponsorship_Sponsor'
p172
sI20
S'Physical.OrganizationHeadquarter_Place,Physical.OrganizationHeadquarter_Organization'
p173
ssS'PER,ORG'
p174
(dp175
I3
S'OrganizationAffiliation.EmploymentMembership_Employee,OrganizationAffiliation.EmploymentMembership_Organization'
p176
sI4
S'OrganizationAffiliation.Ownership_Owner,OrganizationAffiliation.Ownership_Organization'
p177
sI5
S'OrganizationAffiliation.Founder_Founder,OrganizationAffiliation.Founder_Organization'
p178
sI6
S'OrganizationAffiliation.InvestorShareholder_InvestorShareholder,OrganizationAffiliation.InvestorShareholder_Organization'
p179
sI7
S'OrganizationAffiliation.StudentAlum_StudentAlum,OrganizationAffiliation.StudentAlum_Organization'
p180
sI15
S'OrganizationAffiliation.Leadership_Leader,OrganizationAffiliation.Leadership_Organization'
p181
sI16
S'GeneralAffiliation.OPRA_Affiliation,GeneralAffiliation.OPRA_Organization'
p182
ssS'ORG,URL'
p183
(dp184
I17
S'GeneralAffiliation.OrganizationWebsite_Organization,GeneralAffiliation.OrganizationWebsite_Website'
p185
ssS'GPE,ORG'
p186
(dp187
I5
S'OrganizationAffiliation.Founder_Founder,OrganizationAffiliation.Founder_Organization'
p188
sI6
S'OrganizationAffiliation.InvestorShareholder_InvestorShareholder,OrganizationAffiliation.InvestorShareholder_Organization'
p189
sI8
S'PartWhole.Subsidiary_Parent,PartWhole.Subsidiary_Subsidiary'
p190
sI19
S'GeneralAffiliation.Sponsorship_Entity,GeneralAffiliation.Sponsorship_Sponsor'
p191
sI20
S'Physical.OrganizationHeadquarter_Place,Physical.OrganizationHeadquarter_Organization'
p192
sI22
S'PartWhole.Membership_Member,PartWhole.Membership_Organization'
p193
sI27
S'Physical.OrganizationLocationOrigin_Place,Physical.OrganizationLocationOrigin_Organization'
p194
ssS'GPE,Commodity'
p195
(dp196
I26
S'GeneralAffiliation.APORA_Affiliation,GeneralAffiliation.APORA_Affiliate'
p197
sI14
S'Physical.LocatedNear_Place,Physical.LocatedNear_Entity'
p198
ssS'NumericalValue,FAC'
p199
(dp200
I28
S'Measurement.Count_Count,Measurement.Count_Item'
p201
ssS'PER,TITLE'
p202
(dp203
I21
S'PersonalSocial.RoleTitle_Person,PersonalSocial.RoleTitle_Title'
p204
ssS'Sides,LOC'
p205
(dp206
I19
S'GeneralAffiliation.Sponsorship_Sponsor,GeneralAffiliation.Sponsorship_Entity'
p207
ssS'LOC,VEH'
p208
(dp209
I26
S'GeneralAffiliation.APORA_Affiliation,GeneralAffiliation.APORA_Affiliate'
p210
sI14
S'Physical.LocatedNear_Place,Physical.LocatedNear_Entity'
p211
ssS'ORG,GPE'
p212
(dp213
I5
S'OrganizationAffiliation.Founder_Organization,OrganizationAffiliation.Founder_Founder'
p214
sI6
S'OrganizationAffiliation.InvestorShareholder_Organization,OrganizationAffiliation.InvestorShareholder_InvestorShareholder'
p215
sI8
S'PartWhole.Subsidiary_Subsidiary,PartWhole.Subsidiary_Parent'
p216
sI19
S'GeneralAffiliation.Sponsorship_Sponsor,GeneralAffiliation.Sponsorship_Entity'
p217
sI20
S'Physical.OrganizationHeadquarter_Organization,Physical.OrganizationHeadquarter_Place'
p218
sI22
S'PartWhole.Membership_Organization,PartWhole.Membership_Member'
p219
sI27
S'Physical.OrganizationLocationOrigin_Organization,Physical.OrganizationLocationOrigin_Place'
p220
ssS'FAC,PER'
p221
(dp222
I26
S'GeneralAffiliation.APORA_Affiliate,GeneralAffiliation.APORA_Affiliation'
p223
sI13
S'Physical.Resident_Place,Physical.Resident_Resident'
p224
sI14
S'Physical.LocatedNear_Place,Physical.LocatedNear_Entity'
p225
ssS'ORG,Commodity'
p226
(dp227
I26
S'GeneralAffiliation.APORA_Affiliation,GeneralAffiliation.APORA_Affiliate'
p228
ssS'LOC,Commodity'
p229
(dp230
I26
S'GeneralAffiliation.APORA_Affiliation,GeneralAffiliation.APORA_Affiliate'
p231
sI14
S'Physical.LocatedNear_Place,Physical.LocatedNear_Entity'
p232
ssS'ORG,VEH'
p233
(dp234
I26
S'GeneralAffiliation.APORA_Affiliation,GeneralAffiliation.APORA_Affiliate'
p235
ssS'NumericalValue,PER'
p236
(dp237
I28
S'Measurement.Count_Count,Measurement.Count_Item'
p238
ssS'Sides,FAC'
p239
(dp240
I26
S'GeneralAffiliation.APORA_Affiliation,GeneralAffiliation.APORA_Affiliate'
p241
ssS'ORG,WEA'
p242
(dp243
I26
S'GeneralAffiliation.APORA_Affiliation,GeneralAffiliation.APORA_Affiliate'
p244
ssS'FAC,ORG'
p245
(dp246
I26
S'GeneralAffiliation.APORA_Affiliate,GeneralAffiliation.APORA_Affiliation'
p247
sI27
S'Physical.OrganizationLocationOrigin_Place,Physical.OrganizationLocationOrigin_Organization'
p248
sI20
S'Physical.OrganizationHeadquarter_Place,Physical.OrganizationHeadquarter_Organization'
p249
ssS'Sides,PER'
p250
(dp251
I1
S'GeneralAffiliation.MORE_Affiliation,GeneralAffiliation.MORE_Person'
p252
ssS'PER,WEA'
p253
(dp254
I26
S'GeneralAffiliation.APORA_Affiliation,GeneralAffiliation.APORA_Affiliate'
p255
ssS'ORG,LOC'
p256
(dp257
I27
S'Physical.OrganizationLocationOrigin_Organization,Physical.OrganizationLocationOrigin_Place'
p258
sI19
S'GeneralAffiliation.Sponsorship_Sponsor,GeneralAffiliation.Sponsorship_Entity'
p259
sI20
S'Physical.OrganizationHeadquarter_Organization,Physical.OrganizationHeadquarter_Place'
p260
ssS'VEH,Sides'
p261
(dp262
I26
S'GeneralAffiliation.APORA_Affiliate,GeneralAffiliation.APORA_Affiliation'
p263
ssS'LOC,LOC'
p264
(dp265
I19
S'GeneralAffiliation.Sponsorship_Sponsor,GeneralAffiliation.Sponsorship_Entity'
p266
ssS'GPE,PER'
p267
(dp268
I1
S'GeneralAffiliation.MORE_Affiliation,GeneralAffiliation.MORE_Person'
p269
sI3
S'OrganizationAffiliation.EmploymentMembership_Organization,OrganizationAffiliation.EmploymentMembership_Employee'
p270
sI13
S'Physical.Resident_Place,Physical.Resident_Resident'
p271
sI14
S'Physical.LocatedNear_Place,Physical.LocatedNear_Entity'
p272
sI15
S'OrganizationAffiliation.Leadership_Organization,OrganizationAffiliation.Leadership_Leader'
p273
ssS'PER,LOC'
p274
(dp275
I1
S'GeneralAffiliation.MORE_Person,GeneralAffiliation.MORE_Affiliation'
p276
sI13
S'Physical.Resident_Resident,Physical.Resident_Place'
p277
sI14
S'Physical.LocatedNear_Entity,Physical.LocatedNear_Place'
p278
ssS'Age,PER'
p279
(dp280
I18
S'GeneralAffiliation.PersonAge_Age,GeneralAffiliation.PersonAge_Person'
p281
ssS'VEH,PER'
p282
(dp283
I26
S'GeneralAffiliation.APORA_Affiliate,GeneralAffiliation.APORA_Affiliation'
p284
ssS'VEH,LOC'
p285
(dp286
I26
S'GeneralAffiliation.APORA_Affiliate,GeneralAffiliation.APORA_Affiliation'
p287
sI14
S'Physical.LocatedNear_Entity,Physical.LocatedNear_Place'
p288
ssS'LOC,Sides'
p289
(dp290
I19
S'GeneralAffiliation.Sponsorship_Entity,GeneralAffiliation.Sponsorship_Sponsor'
p291
ssS'Sides,WEA'
p292
(dp293
I26
S'GeneralAffiliation.APORA_Affiliation,GeneralAffiliation.APORA_Affiliate'
p294
ssS'LOC,WEA'
p295
(dp296
I26
S'GeneralAffiliation.APORA_Affiliation,GeneralAffiliation.APORA_Affiliate'
p297
sI14
S'Physical.LocatedNear_Place,Physical.LocatedNear_Entity'
p298
ssS'FAC,Sides'
p299
(dp300
I26
S'GeneralAffiliation.APORA_Affiliate,GeneralAffiliation.APORA_Affiliation'
p301
ssS'ORG,FAC'
p302
(dp303
I26
S'GeneralAffiliation.APORA_Affiliation,GeneralAffiliation.APORA_Affiliate'
p304
sI27
S'Physical.OrganizationLocationOrigin_Organization,Physical.OrganizationLocationOrigin_Place'
p305
sI20
S'Physical.OrganizationHeadquarter_Organization,Physical.OrganizationHeadquarter_Place'
p306
ssS'WEA,Sides'
p307
(dp308
I26
S'GeneralAffiliation.APORA_Affiliate,GeneralAffiliation.APORA_Affiliation'
p309
ssS'GPE,Sides'
p310
(dp311
I19
S'GeneralAffiliation.Sponsorship_Entity,GeneralAffiliation.Sponsorship_Sponsor'
p312
ssS'VEH,GPE'
p313
(dp314
I26
S'GeneralAffiliation.APORA_Affiliate,GeneralAffiliation.APORA_Affiliation'
p315
sI14
S'Physical.LocatedNear_Entity,Physical.LocatedNear_Place'
p316
ssS'FAC,WEA'
p317
(dp318
I14
S'Physical.LocatedNear_Place,Physical.LocatedNear_Entity'
p319
ssS'Commodity,FAC'
p320
(dp321
I14
S'Physical.LocatedNear_Entity,Physical.LocatedNear_Place'
p322
ssS'GPE,GPE'
p323
(dp324
I19
S'GeneralAffiliation.Sponsorship_Sponsor,GeneralAffiliation.Sponsorship_Entity'
p325
ssS'PER,VEH'
p326
(dp327
I26
S'GeneralAffiliation.APORA_Affiliation,GeneralAffiliation.APORA_Affiliate'
p328
ssS'Commodity,ORG'
p329
(dp330
I26
S'GeneralAffiliation.APORA_Affiliate,GeneralAffiliation.APORA_Affiliation'
p331
ssS'WEA,NumericalValue'
p332
(dp333
I28
S'Measurement.Count_Item,Measurement.Count_Count'
p334
ssS'TITLE,PER'
p335
(dp336
I21
S'PersonalSocial.RoleTitle_Title,PersonalSocial.RoleTitle_Person'
p337
ssS'FAC,GPE'
p338
(dp339
I26
S'GeneralAffiliation.APORA_Affiliate,GeneralAffiliation.APORA_Affiliation'
p340
sI14
S'Physical.LocatedNear_Entity,Physical.LocatedNear_Place'
p341
ssS'ORG,Sides'
p342
(dp343
I16
S'GeneralAffiliation.OPRA_Organization,GeneralAffiliation.OPRA_Affiliation'
p344
sI19
S'GeneralAffiliation.Sponsorship_Entity,GeneralAffiliation.Sponsorship_Sponsor'
p345
ss.