(dp1
S'Commodity,Sides'
p2
(dp3
I26
S'GeneralAffiliation.APORA_Affiliate,GeneralAffiliation.APORA_Affiliation,1.0'
p4
ssS'GPE,LOC'
p5
(dp6
I19
S'GeneralAffiliation.Sponsorship_Entity,GeneralAffiliation.Sponsorship_Sponsor,1.0'
p7
ssS'FAC,VEH'
p8
(dp9
I14
S'Physical.LocatedNear_Place,Physical.LocatedNear_Entity,1.0'
p10
ssS'FAC,Commodity'
p11
(dp12
I14
S'Physical.LocatedNear_Place,Physical.LocatedNear_Entity,1.0'
p13
ssS'LOC,NumericalValue'
p14
(dp15
I28
S'Measurement.Count_Item,Measurement.Count_Count,1.0'
p16
ssS'Sides,ORG'
p17
(dp18
I16
S'GeneralAffiliation.OPRA_Affiliation,GeneralAffiliation.OPRA_Organization,1.0'
p19
sI19
S'GeneralAffiliation.Sponsorship_Sponsor,GeneralAffiliation.Sponsorship_Entity,1.0'
p20
ssS'FAC,NumericalValue'
p21
(dp22
I28
S'Measurement.Count_Item,Measurement.Count_Count,1.0'
p23
ssS'PER,NumericalValue'
p24
(dp25
I28
S'Measurement.Count_Item,Measurement.Count_Count,1.0'
p26
ssS'PER,Sides'
p27
(dp28
I1
S'GeneralAffiliation.MORE_Person,GeneralAffiliation.MORE_Affiliation,1.0'
p29
ssS'LOC,GPE'
p30
(dp31
I19
S'GeneralAffiliation.Sponsorship_Sponsor,GeneralAffiliation.Sponsorship_Entity,1.0'
p32
ssS'GPE,NumericalValue'
p33
(dp34
I28
S'Measurement.Count_Item,Measurement.Count_Count,1.0'
p35
ssS'FAC,LOC'
p36
(dp37
I26
S'GeneralAffiliation.APORA_Affiliate,GeneralAffiliation.APORA_Affiliation,4.0'
p38
sI14
S'Physical.LocatedNear_Entity,Physical.LocatedNear_Place,0.5'
p39
ssS'WEA,ORG'
p40
(dp41
I26
S'GeneralAffiliation.APORA_Affiliate,GeneralAffiliation.APORA_Affiliation,1.0'
p42
ssS'URL,ORG'
p43
(dp44
I17
S'GeneralAffiliation.OrganizationWebsite_Website,GeneralAffiliation.OrganizationWebsite_Organization,1.0'
p45
ssS'LOC,FAC'
p46
(dp47
I26
S'GeneralAffiliation.APORA_Affiliation,GeneralAffiliation.APORA_Affiliate,4.0'
p48
sI14
S'Physical.LocatedNear_Place,Physical.LocatedNear_Entity,0.5'
p49
ssS'WEA,LOC'
p50
(dp51
I26
S'GeneralAffiliation.APORA_Affiliate,GeneralAffiliation.APORA_Affiliation,2.0'
p52
sI14
S'Physical.LocatedNear_Entity,Physical.LocatedNear_Place,0.4'
p53
ssS'Sides,Commodity'
p54
(dp55
I26
S'GeneralAffiliation.APORA_Affiliation,GeneralAffiliation.APORA_Affiliate,1.0'
p56
ssS'NumericalValue,ORG'
p57
(dp58
I28
S'Measurement.Count_Count,Measurement.Count_Item,1.0'
p59
ssS'VEH,ORG'
p60
(dp61
I26
S'GeneralAffiliation.APORA_Affiliate,GeneralAffiliation.APORA_Affiliation,1.0'
p62
ssS'GPE,WEA'
p63
(dp64
I26
S'GeneralAffiliation.APORA_Affiliation,GeneralAffiliation.APORA_Affiliate,0.6'
p65
sI14
S'Physical.LocatedNear_Place,Physical.LocatedNear_Entity,0.4'
p66
ssS'PER,GPE'
p67
(dp68
I1
S'GeneralAffiliation.MORE_Person,GeneralAffiliation.MORE_Affiliation,1.0'
p69
sI3
S'OrganizationAffiliation.EmploymentMembership_Employee,OrganizationAffiliation.EmploymentMembership_Organization,0.1'
p70
sI13
S'Physical.Resident_Resident,Physical.Resident_Place,1.0'
p71
sI14
S'Physical.LocatedNear_Entity,Physical.LocatedNear_Place,1.0'
p72
sI15
S'OrganizationAffiliation.Leadership_Leader,OrganizationAffiliation.Leadership_Organization,1.0'
p73
ssS'GPE,FAC'
p74
(dp75
I26
S'GeneralAffiliation.APORA_Affiliation,GeneralAffiliation.APORA_Affiliate,1.6'
p76
sI14
S'Physical.LocatedNear_Place,Physical.LocatedNear_Entity,0.4'
p77
ssS'Commodity,GPE'
p78
(dp79
I26
S'GeneralAffiliation.APORA_Affiliate,GeneralAffiliation.APORA_Affiliation,1.0'
p80
sI14
S'Physical.LocatedNear_Entity,Physical.LocatedNear_Place,1.0'
p81
ssS'Sides,GPE'
p82
(dp83
I19
S'GeneralAffiliation.Sponsorship_Sponsor,GeneralAffiliation.Sponsorship_Entity,1.0'
p84
ssS'Sides,VEH'
p85
(dp86
I26
S'GeneralAffiliation.APORA_Affiliation,GeneralAffiliation.APORA_Affiliate,1.0'
p87
ssS'ORG,NumericalValue'
p88
(dp89
I28
S'Measurement.Count_Item,Measurement.Count_Count,1.0'
p90
ssS'VEH,FAC'
p91
(dp92
I14
S'Physical.LocatedNear_Entity,Physical.LocatedNear_Place,1.0'
p93
ssS'NumericalValue,VEH'
p94
(dp95
I28
S'Measurement.Count_Count,Measurement.Count_Item,1.0'
p96
ssS'Commodity,PER'
p97
(dp98
I26
S'GeneralAffiliation.APORA_Affiliate,GeneralAffiliation.APORA_Affiliation,1.0'
p99
ssS'LOC,PER'
p100
(dp101
I1
S'GeneralAffiliation.MORE_Affiliation,GeneralAffiliation.MORE_Person,0.2'
p102
sI13
S'Physical.Resident_Place,Physical.Resident_Resident,1.6'
p103
sI14
S'Physical.LocatedNear_Place,Physical.LocatedNear_Entity,1.'
p104
ssS'FAC,Sides'
p105
(dp106
I26
S'GeneralAffiliation.APORA_Affiliate,GeneralAffiliation.APORA_Affiliation,1.0'
p107
ssS'ORG,PER'
p108
(dp109
I3
S'OrganizationAffiliation.EmploymentMembership_Organization,OrganizationAffiliation.EmploymentMembership_Employee,0.4'
p110
sI4
S'OrganizationAffiliation.Ownership_Organization,OrganizationAffiliation.Ownership_Owner,0.2'
p111
sI5
S'OrganizationAffiliation.Founder_Organization,OrganizationAffiliation.Founder_Founder,0.1'
p112
sI6
S'OrganizationAffiliation.InvestorShareholder_Organization,OrganizationAffiliation.InvestorShareholder_InvestorShareholder,0.1'
p113
sI7
S'OrganizationAffiliation.StudentAlum_Organization,OrganizationAffiliation.StudentAlum_StudentAlum,0.01'
p114
sI15
S'OrganizationAffiliation.Leadership_Organization,OrganizationAffiliation.Leadership_Leader,0.1'
p115
sI16
S'GeneralAffiliation.OPRA_Organization,GeneralAffiliation.OPRA_Affiliation,0.4'
p116
ssS'FAC,FAC'
p117
(dp118
I14
S'Physical.LocatedNear_Place,Physical.LocatedNear_Entity,1.0'
p119
ssS'NumericalValue,WEA'
p120
(dp121
I28
S'Measurement.Count_Count,Measurement.Count_Item,1.0'
p122
ssS'Age,PER'
p123
(dp124
I18
S'GeneralAffiliation.PersonAge_Age,GeneralAffiliation.PersonAge_Person,1.0'
p125
ssS'WEA,PER'
p126
(dp127
I26
S'GeneralAffiliation.APORA_Affiliate,GeneralAffiliation.APORA_Affiliation,1.0'
p128
ssS'WEA,FAC'
p129
(dp130
I14
S'Physical.LocatedNear_Entity,Physical.LocatedNear_Place,1.0'
p131
ssS'WEA,GPE'
p132
(dp133
I26
S'GeneralAffiliation.APORA_Affiliate,GeneralAffiliation.APORA_Affiliation,0.6'
p134
sI14
S'Physical.LocatedNear_Entity,Physical.LocatedNear_Place,0.4'
p135
ssS'VEH,NumericalValue'
p136
(dp137
I28
S'Measurement.Count_Item,Measurement.Count_Count,1.0'
p138
ssS'GPE,VEH'
p139
(dp140
I26
S'GeneralAffiliation.APORA_Affiliation,GeneralAffiliation.APORA_Affiliate,6.0'
p141
sI14
S'Physical.LocatedNear_Place,Physical.LocatedNear_Entity,4.0'
p142
ssS'ORG,LOC'
p143
(dp144
I19
S'GeneralAffiliation.Sponsorship_Sponsor,GeneralAffiliation.Sponsorship_Entity,0.1'
p145
sI27
S'Physical.OrganizationLocationOrigin_Organization,Physical.OrganizationLocationOrigin_Place,1.0'
p146
sI20
S'Physical.OrganizationHeadquarter_Organization,Physical.OrganizationHeadquarter_Place,0.4'
p147
ssS'PER,PER'
p148
(dp149
I1
S'GeneralAffiliation.MORE_Person,GeneralAffiliation.MORE_Affiliation,1.0'
p150
ssS'PER,FAC'
p151
(dp152
I26
S'GeneralAffiliation.APORA_Affiliation,GeneralAffiliation.APORA_Affiliate,1.0'
p153
sI13
S'Physical.Resident_Resident,Physical.Resident_Place,0.5'
p154
sI14
S'Physical.LocatedNear_Entity,Physical.LocatedNear_Place,1.0'
p155
ssS'NumericalValue,GPE'
p156
(dp157
I28
S'Measurement.Count_Count,Measurement.Count_Item,1.0'
p158
ssS'ORG,WEA'
p159
(dp160
I26
S'GeneralAffiliation.APORA_Affiliation,GeneralAffiliation.APORA_Affiliate,1.0'
p161
ssS'Commodity,LOC'
p162
(dp163
I26
S'GeneralAffiliation.APORA_Affiliate,GeneralAffiliation.APORA_Affiliation,1.0'
p164
sI14
S'Physical.LocatedNear_Entity,Physical.LocatedNear_Place,1.0'
p165
ssS'LOC,ORG'
p166
(dp167
I19
S'GeneralAffiliation.Sponsorship_Entity,GeneralAffiliation.Sponsorship_Sponsor,0.2'
p168
sI27
S'Physical.OrganizationLocationOrigin_Place,Physical.OrganizationLocationOrigin_Organization,1.0'
p169
sI20
S'Physical.OrganizationHeadquarter_Place,Physical.OrganizationHeadquarter_Organization,1.0'
p170
ssS'PER,ORG'
p171
(dp172
I3
S'OrganizationAffiliation.EmploymentMembership_Employee,OrganizationAffiliation.EmploymentMembership_Organization,1.0'
p173
sI4
S'OrganizationAffiliation.Ownership_Owner,OrganizationAffiliation.Ownership_Organization,0.8'
p174
sI5
S'OrganizationAffiliation.Founder_Founder,OrganizationAffiliation.Founder_Organization,0.8'
p175
sI6
S'OrganizationAffiliation.InvestorShareholder_InvestorShareholder,OrganizationAffiliation.InvestorShareholder_Organization,0.2'
p176
sI7
S'OrganizationAffiliation.StudentAlum_StudentAlum,OrganizationAffiliation.StudentAlum_Organization,0.1'
p177
sI15
S'OrganizationAffiliation.Leadership_Leader,OrganizationAffiliation.Leadership_Organization,0.8'
p178
sI16
S'GeneralAffiliation.OPRA_Affiliation,GeneralAffiliation.OPRA_Organization,0.8'
p179
ssS'ORG,URL'
p180
(dp181
I17
S'GeneralAffiliation.OrganizationWebsite_Organization,GeneralAffiliation.OrganizationWebsite_Website,1.0'
p182
ssS'GPE,ORG'
p183
(dp184
I5
S'OrganizationAffiliation.Founder_Founder,OrganizationAffiliation.Founder_Organization,0.1'
p185
sI6
S'OrganizationAffiliation.InvestorShareholder_InvestorShareholder,OrganizationAffiliation.InvestorShareholder_Organization,0.1'
p186
sI8
S'PartWhole.Subsidiary_Parent,PartWhole.Subsidiary_Subsidiary,0.5'
p187
sI19
S'GeneralAffiliation.Sponsorship_Entity,GeneralAffiliation.Sponsorship_Sponsor,0.1'
p188
sI20
S'Physical.OrganizationHeadquarter_Place,Physical.OrganizationHeadquarter_Organization,1.0'
p189
sI22
S'PartWhole.Membership_Member,PartWhole.Membership_Organization,1.0'
p190
sI27
S'Physical.OrganizationLocationOrigin_Place,Physical.OrganizationLocationOrigin_Organization,1.0'
p191
ssS'GPE,Commodity'
p192
(dp193
I26
S'GeneralAffiliation.APORA_Affiliation,GeneralAffiliation.APORA_Affiliate,1.0'
p194
sI14
S'Physical.LocatedNear_Place,Physical.LocatedNear_Entity,1.0'
p195
ssS'NumericalValue,FAC'
p196
(dp197
I28
S'Measurement.Count_Count,Measurement.Count_Item,1.0'
p198
ssS'PER,TITLE'
p199
(dp200
I21
S'PersonalSocial.RoleTitle_Person,PersonalSocial.RoleTitle_Title,1.0'
p201
ssS'Sides,LOC'
p202
(dp203
I19
S'GeneralAffiliation.Sponsorship_Sponsor,GeneralAffiliation.Sponsorship_Entity,1.0'
p204
ssS'LOC,VEH'
p205
(dp206
I26
S'GeneralAffiliation.APORA_Affiliation,GeneralAffiliation.APORA_Affiliate,0.1'
p207
sI14
S'Physical.LocatedNear_Place,Physical.LocatedNear_Entity,1.0'
p208
ssS'ORG,GPE'
p209
(dp210
I5
S'OrganizationAffiliation.Founder_Organization,OrganizationAffiliation.Founder_Founder,0.1'
p211
sI6
S'OrganizationAffiliation.InvestorShareholder_Organization,OrganizationAffiliation.InvestorShareholder_InvestorShareholder,0.1'
p212
sI8
S'PartWhole.Subsidiary_Subsidiary,PartWhole.Subsidiary_Parent,1.0'
p213
sI19
S'GeneralAffiliation.Sponsorship_Sponsor,GeneralAffiliation.Sponsorship_Entity,0.1'
p214
sI20
S'Physical.OrganizationHeadquarter_Organization,Physical.OrganizationHeadquarter_Place,0.5'
p215
sI22
S'PartWhole.Membership_Organization,PartWhole.Membership_Member,0.5'
p216
sI27
S'Physical.OrganizationLocationOrigin_Organization,Physical.OrganizationLocationOrigin_Place,0.5'
p217
ssS'FAC,PER'
p218
(dp219
I26
S'GeneralAffiliation.APORA_Affiliate,GeneralAffiliation.APORA_Affiliation,1.0'
p220
sI13
S'Physical.Resident_Place,Physical.Resident_Resident,0.1'
p221
sI14
S'Physical.LocatedNear_Place,Physical.LocatedNear_Entity,0.6'
p222
ssS'ORG,Commodity'
p223
(dp224
I26
S'GeneralAffiliation.APORA_Affiliation,GeneralAffiliation.APORA_Affiliate,1.0'
p225
ssS'LOC,Commodity'
p226
(dp227
I26
S'GeneralAffiliation.APORA_Affiliation,GeneralAffiliation.APORA_Affiliate,1.0'
p228
sI14
S'Physical.LocatedNear_Place,Physical.LocatedNear_Entity,1.0'
p229
ssS'ORG,VEH'
p230
(dp231
I26
S'GeneralAffiliation.APORA_Affiliation,GeneralAffiliation.APORA_Affiliate,1.0'
p232
ssS'NumericalValue,PER'
p233
(dp234
I28
S'Measurement.Count_Count,Measurement.Count_Item,1.0'
p235
ssS'Sides,FAC'
p236
(dp237
I26
S'GeneralAffiliation.APORA_Affiliation,GeneralAffiliation.APORA_Affiliate,1.0'
p238
ssS'NumericalValue,LOC'
p239
(dp240
I28
S'Measurement.Count_Count,Measurement.Count_Item,1.0'
p241
ssS'FAC,ORG'
p242
(dp243
I26
S'GeneralAffiliation.APORA_Affiliate,GeneralAffiliation.APORA_Affiliation,1.0'
p244
sI27
S'Physical.OrganizationLocationOrigin_Place,Physical.OrganizationLocationOrigin_Organization,0.1'
p245
sI20
S'Physical.OrganizationHeadquarter_Place,Physical.OrganizationHeadquarter_Organization,0.1'
p246
ssS'Sides,PER'
p247
(dp248
I1
S'GeneralAffiliation.MORE_Affiliation,GeneralAffiliation.MORE_Person,1.0'
p249
ssS'PER,WEA'
p250
(dp251
I26
S'GeneralAffiliation.APORA_Affiliation,GeneralAffiliation.APORA_Affiliate,1.0'
p252
ssS'PER,Age'
p253
(dp254
I18
S'GeneralAffiliation.PersonAge_Person,GeneralAffiliation.PersonAge_Age,1.0'
p255
ssS'VEH,Sides'
p256
(dp257
I26
S'GeneralAffiliation.APORA_Affiliate,GeneralAffiliation.APORA_Affiliation,1.0'
p258
ssS'LOC,LOC'
p259
(dp260
I19
S'GeneralAffiliation.Sponsorship_Sponsor,GeneralAffiliation.Sponsorship_Entity,1.0'
p261
ssS'GPE,PER'
p262
(dp263
I1
S'GeneralAffiliation.MORE_Affiliation,GeneralAffiliation.MORE_Person,1.0'
p264
sI3
S'OrganizationAffiliation.EmploymentMembership_Organization,OrganizationAffiliation.EmploymentMembership_Employee,1.0'
p265
sI13
S'Physical.Resident_Place,Physical.Resident_Resident,1.0'
p266
sI14
S'Physical.LocatedNear_Place,Physical.LocatedNear_Entity,1.0'
p267
sI15
S'OrganizationAffiliation.Leadership_Organization,OrganizationAffiliation.Leadership_Leader,0.5'
p268
ssS'PER,LOC'
p269
(dp270
I1
S'GeneralAffiliation.MORE_Person,GeneralAffiliation.MORE_Affiliation,1.0'
p271
sI13
S'Physical.Resident_Resident,Physical.Resident_Place,1.0'
p272
sI14
S'Physical.LocatedNear_Entity,Physical.LocatedNear_Place,1.0'
p273
ssS'ORG,ORG'
p274
(dp275
I5
S'OrganizationAffiliation.Founder_Organization,OrganizationAffiliation.Founder_Founder,1.0'
p276
sI6
S'OrganizationAffiliation.InvestorShareholder_Organization,OrganizationAffiliation.InvestorShareholder_InvestorShareholder,1.0'
p277
sI8
S'PartWhole.Subsidiary_Subsidiary,PartWhole.Subsidiary_Parent,3.0'
p278
sI16
S'GeneralAffiliation.OPRA_Organization,GeneralAffiliation.OPRA_Affiliation,3.'
p279
sI19
S'GeneralAffiliation.Sponsorship_Sponsor,GeneralAffiliation.Sponsorship_Entity,0.1'
p280
sI22
S'PartWhole.Membership_Organization,PartWhole.Membership_Member,3.0'
p281
ssS'VEH,PER'
p282
(dp283
I26
S'GeneralAffiliation.APORA_Affiliate,GeneralAffiliation.APORA_Affiliation,1.0'
p284
ssS'VEH,LOC'
p285
(dp286
I26
S'GeneralAffiliation.APORA_Affiliate,GeneralAffiliation.APORA_Affiliation,1.0'
p287
sI14
S'Physical.LocatedNear_Entity,Physical.LocatedNear_Place,0.5'
p288
ssS'LOC,Sides'
p289
(dp290
I19
S'GeneralAffiliation.Sponsorship_Entity,GeneralAffiliation.Sponsorship_Sponsor,1.0'
p291
ssS'WEA,NumericalValue'
p292
(dp293
I28
S'Measurement.Count_Item,Measurement.Count_Count,1.0'
p294
ssS'LOC,WEA'
p295
(dp296
I26
S'GeneralAffiliation.APORA_Affiliation,GeneralAffiliation.APORA_Affiliate,0.6'
p297
sI14
S'Physical.LocatedNear_Place,Physical.LocatedNear_Entity,0.4'
p298
ssS'PER,Commodity'
p299
(dp300
I26
S'GeneralAffiliation.APORA_Affiliation,GeneralAffiliation.APORA_Affiliate,1.0'
p301
ssS'ORG,FAC'
p302
(dp303
I26
S'GeneralAffiliation.APORA_Affiliation,GeneralAffiliation.APORA_Affiliate,1.0'
p304
sI27
S'Physical.OrganizationLocationOrigin_Organization,Physical.OrganizationLocationOrigin_Place,1.0'
p305
sI20
S'Physical.OrganizationHeadquarter_Organization,Physical.OrganizationHeadquarter_Place,0.1'
p306
ssS'WEA,Sides'
p307
(dp308
I26
S'GeneralAffiliation.APORA_Affiliate,GeneralAffiliation.APORA_Affiliation,1.0'
p309
ssS'GPE,Sides'
p310
(dp311
I19
S'GeneralAffiliation.Sponsorship_Entity,GeneralAffiliation.Sponsorship_Sponsor,1.0'
p312
ssS'VEH,GPE'
p313
(dp314
I26
S'GeneralAffiliation.APORA_Affiliate,GeneralAffiliation.APORA_Affiliation,1.0'
p315
sI14
S'Physical.LocatedNear_Entity,Physical.LocatedNear_Place,5.0'
p316
ssS'FAC,WEA'
p317
(dp318
I14
S'Physical.LocatedNear_Place,Physical.LocatedNear_Entity,1.0'
p319
ssS'Commodity,FAC'
p320
(dp321
I14
S'Physical.LocatedNear_Entity,Physical.LocatedNear_Place,1.0'
p322
ssS'GPE,GPE'
p323
(dp324
I19
S'GeneralAffiliation.Sponsorship_Sponsor,GeneralAffiliation.Sponsorship_Entity,1.0'
p325
ssS'PER,VEH'
p326
(dp327
I26
S'GeneralAffiliation.APORA_Affiliation,GeneralAffiliation.APORA_Affiliate,1.0'
p328
ssS'Commodity,ORG'
p329
(dp330
I26
S'GeneralAffiliation.APORA_Affiliate,GeneralAffiliation.APORA_Affiliation,1.0'
p331
ssS'Sides,WEA'
p332
(dp333
I26
S'GeneralAffiliation.APORA_Affiliation,GeneralAffiliation.APORA_Affiliate,1.0'
p334
ssS'TITLE,PER'
p335
(dp336
I21
S'PersonalSocial.RoleTitle_Title,PersonalSocial.RoleTitle_Person,1.0'
p337
ssS'FAC,GPE'
p338
(dp339
I26
S'GeneralAffiliation.APORA_Affiliate,GeneralAffiliation.APORA_Affiliation,1.0'
p340
sI14
S'Physical.LocatedNear_Entity,Physical.LocatedNear_Place,0.5'
p341
ssS'ORG,Sides'
p342
(dp343
I16
S'GeneralAffiliation.OPRA_Organization,GeneralAffiliation.OPRA_Affiliation,1.0'
p344
sI19
S'GeneralAffiliation.Sponsorship_Entity,GeneralAffiliation.Sponsorship_Sponsor,1.0'
p345
ss.