(dp0
S'event,author_check'
p1
(dp2
I0
S'Event,Holder'
p3
sI1
S'Event,Holder'
p4
sI2
S'SentimentTarget,Holder'
p5
ssS'res,gpe'
p6
(dp7
I2
g5
ssS'com,gpe'
p8
(dp9
I17
S'EntityOrFiller,Place'
p10
sI3
S'Artifact,EntityOrFiller'
p11
ssS'fac,fac'
p12
(dp13
I17
S'Place,EntityOrFiller'
p14
ssS'fac,com'
p15
(dp16
I17
g14
ssS'law,org'
p17
(dp18
I2
g5
ssS'com,org'
p19
(dp20
I9
S'EntityOrFiller,Brand'
p21
sI3
g11
ssS'per,per'
p22
(dp23
I16
S'Person,Person'
p24
sI2
g5
sI4
S'EntityOrFiller,Person'
p25
ssS'org,crm'
p26
(dp27
I2
S'Holder,SentimentTarget'
p28
ssS'org,sid'
p29
(dp30
I2
g5
sI5
S'Organization,EntityOrFiller'
p31
sI7
S'ActorOrEvent,Sponsor'
p32
ssS'loc,com'
p33
(dp34
I17
g14
sI3
S'EntityOrFiller,Artifact'
p35
ssS'val,veh'
p36
(dp37
I8
S'Color,EntityOrFiller'
p38
sI9
S'Brand,EntityOrFiller'
p39
sI10
S'Measurement,EntityOrFiller'
p40
ssS'per,mon'
p41
(dp42
I2
g28
sI3
g35
ssS'gpe,gpe'
p43
(dp44
I2
g5
sI14
S'Parent,Subsidiary'
p45
sI7
S'Sponsor,ActorOrEvent'
p46
ssS'fac,author_check'
p47
(dp48
I2
g5
ssS'per,wea'
p49
(dp50
I3
g35
ssS'crm,org'
p51
(dp52
I2
g5
ssS'fac,gpe'
p53
(dp54
I17
g10
sI2
g5
sI3
g11
ssS'gpe,author_check'
p55
(dp56
I2
g5
ssS'org,per'
p57
(dp58
I2
g28
sI11
S'PlaceOfEmploymentMembership,EmployeeMember'
p59
sI13
S'Organization,Leader'
p60
sI5
g31
sI7
g32
ssS'val,per'
p61
(dp62
I10
g40
ssS'sid,author_check'
p63
(dp64
I2
g5
ssS'mon,gpe'
p65
(dp66
I2
g5
sI3
g11
ssS'author_check,org'
p67
(dp68
I2
g28
ssS'res,org'
p69
(dp70
I2
g5
ssS'sid,org'
p71
(dp72
I2
g28
sI5
S'EntityOrFiller,Organization'
p73
sI7
g46
ssS'loc,bal'
p74
(dp75
I17
g14
sI3
g35
ssS'veh,sid'
p76
(dp77
I3
g11
ssS'sid,wea'
p78
(dp79
I3
g35
ssS'val,loc'
p80
(dp81
I10
g40
ssS'fac,val'
p82
(dp83
I8
S'EntityOrFiller,Color'
p84
sI9
g21
sI10
S'EntityOrFiller,Measurement'
p85
ssS'ttl,per'
p86
(dp87
I15
S'Role,Person'
p88
ssS'org,org'
p89
(dp90
I2
g5
sI5
g73
sI14
g45
sI7
g46
ssS'wea,sid'
p91
(dp92
I3
g11
ssS'event,gpe'
p93
(dp94
I0
g3
sI1
g4
sI2
g5
sI7
g32
sI20
S'Event,EntityResponsible'
p95
sI21
S'Event,EntityResponsible'
p96
ssS'loc,val'
p97
(dp98
I10
g85
ssS'val,wea'
p99
(dp100
I8
g38
sI9
g39
sI10
g40
ssS'gpe,sid'
p101
(dp102
I2
g5
sI7
g32
ssS'event,per'
p103
(dp104
I0
g3
sI1
g4
sI2
g5
sI7
g32
sI20
g95
sI21
g96
ssS'loc,sid'
p105
(dp106
I2
g5
sI7
g32
ssS'crm,sid'
p107
(dp108
I2
g5
ssS'loc,gpe'
p109
(dp110
I2
g5
sI7
g32
ssS'fac,loc'
p111
(dp112
I17
g10
sI3
g11
ssS'gpe,wea'
p113
(dp114
I17
g14
sI3
g35
ssS'law,sid'
p115
(dp116
I2
g5
ssS'bal,author_check'
p117
(dp118
I2
g5
ssS'gpe,org'
p119
(dp120
I2
g28
sI5
g73
sI14
g45
sI7
g32
ssS'org,fac'
p121
(dp122
I9
g39
sI2
g28
sI3
g35
ssS'gpe,val'
p123
(dp124
I10
g85
ssS'org,com'
p125
(dp126
I9
g39
sI3
g35
ssS'org,event'
p127
(dp128
I0
S'Holder,Event'
p129
sI1
S'Holder,Event'
p130
sI2
g28
sI7
g46
sI20
S'EntityResponsible,Event'
p131
sI21
S'EntityResponsible,Event'
p132
ssS'mon,per'
p133
(dp134
I2
g5
sI3
g11
ssS'com,sid'
p135
(dp136
I3
g11
ssS'fac,wea'
p137
(dp138
I17
g14
ssS'sid,veh'
p139
(dp140
I3
g35
ssS'veh,loc'
p141
(dp142
I17
g10
sI3
g11
ssS'sid,fac'
p143
(dp144
I2
g28
sI3
g35
ssS'per,veh'
p145
(dp146
I3
g35
ssS'mon,author_check'
p147
(dp148
I2
g5
ssS'veh,org'
p149
(dp150
I9
g21
sI3
g11
ssS'author_check,gpe'
p151
(dp152
I2
g28
ssS'org,gpe'
p153
(dp154
I2
g5
sI5
g31
sI14
S'Subsidiary,Parent'
p155
sI7
g46
ssS'gpe,bal'
p156
(dp157
I17
g14
sI2
g28
sI3
g35
ssS'author_check,per'
p158
(dp159
I2
g28
ssS'res,author_check'
p160
(dp161
I2
g5
ssS'law,author_check'
p162
(dp163
I2
g5
ssS'org,mon'
p164
(dp165
I2
g28
sI3
g35
ssS'author_check,mon'
p166
(dp167
I2
g28
ssS'per,author_check'
p168
(dp169
I2
g5
ssS'res,per'
p170
(dp171
I2
g5
ssS'crm,gpe'
p172
(dp173
I2
g5
ssS'gpe,fac'
p174
(dp175
I17
g14
sI2
g28
sI3
g35
ssS'org,wea'
p176
(dp177
I9
g39
sI3
g35
ssS'gpe,com'
p178
(dp179
I17
g14
sI3
g35
ssS'wea,loc'
p180
(dp181
I17
g10
sI3
g11
ssS'org,veh'
p182
(dp183
I9
g39
sI3
g35
ssS'wea,org'
p184
(dp185
I9
g21
sI3
g11
ssS'wea,fac'
p186
(dp187
I17
g10
ssS'loc,author_check'
p188
(dp189
I2
g5
ssS'bal,loc'
p190
(dp191
I17
g10
sI3
g11
ssS'per,ttl'
p192
(dp193
I15
S'Person,Role'
p194
ssS'sid,crm'
p195
(dp196
I2
g28
ssS'fac,bal'
p197
(dp198
I17
g14
ssS'com,per'
p199
(dp200
I3
g11
ssS'org,loc'
p201
(dp202
I2
g28
sI7
g46
ssS'loc,per'
p203
(dp204
I17
g14
sI2
g5
sI4
g25
sI7
g32
ssS'loc,fac'
p205
(dp206
I17
g14
sI3
g35
ssS'sid,res'
p207
(dp208
I2
g28
ssS'per,res'
p209
(dp210
I2
g28
ssS'sid,com'
p211
(dp212
I3
g35
ssS'author_check,event'
p213
(dp214
I0
g129
sI1
g130
sI2
g28
ssS'val,bal'
p215
(dp216
I8
g38
sI9
g39
sI10
g40
ssS'sid,bal'
p217
(dp218
I2
g28
sI3
g35
ssS'sid,event'
p219
(dp220
I0
g129
sI1
g130
sI2
g28
sI7
g46
sI20
g131
sI21
g132
ssS'law,gpe'
p221
(dp222
I2
g5
ssS'crm,per'
p223
(dp224
I2
g5
ssS'gpe,mon'
p225
(dp226
I2
g28
sI3
g35
ssS'veh,gpe'
p227
(dp228
I17
g10
sI3
g11
ssS'per,crm'
p229
(dp230
I2
g28
ssS'crm,author_check'
p231
(dp232
I2
g5
ssS'gpe,event'
p233
(dp234
I0
g129
sI1
g130
sI2
g28
sI7
g46
sI20
g131
sI21
g132
ssS'wea,per'
p235
(dp236
I3
g11
ssS'author_check,sid'
p237
(dp238
I2
g28
ssS'mon,sid'
p239
(dp240
I2
g5
sI3
g11
ssS'law,per'
p241
(dp242
I2
g5
ssS'wea,gpe'
p243
(dp244
I17
g10
sI3
g11
ssS'com,loc'
p245
(dp246
I17
g10
sI3
g11
ssS'author_check,loc'
p247
(dp248
I2
g28
ssS'mon,loc'
p249
(dp250
I3
g11
ssS'wea,val'
p251
(dp252
I8
g84
sI9
g21
sI10
g85
ssS'gpe,law'
p253
(dp254
I2
g28
ssS'per,law'
p255
(dp256
I2
g28
ssS'per,val'
p257
(dp258
I10
g85
ssS'com,val'
p259
(dp260
I8
g84
sI9
g21
sI10
g85
ssS'per,org'
p261
(dp262
I2
g5
sI11
S'EmployeeMember,PlaceOfEmploymentMembership'
p263
sI13
S'Leader,Organization'
p264
sI5
g73
sI7
g46
ssS'author_check,fac'
p265
(dp266
I2
g28
ssS'gpe,per'
p267
(dp268
I2
g28
sI4
g25
sI7
g32
sI11
g59
sI13
g60
sI17
g14
ssS'gpe,res'
p269
(dp270
I2
g28
ssS'event,org'
p271
(dp272
I0
g3
sI1
g4
sI2
g5
sI7
g32
sI20
g95
sI21
g96
ssS'sid,mon'
p273
(dp274
I2
g28
sI3
g35
ssS'sid,sid'
p275
(dp276
I2
g5
ssS'veh,fac'
p277
(dp278
I17
g10
ssS'author_check,bal'
p279
(dp280
I2
g28
ssS'org,bal'
p281
(dp282
I9
g39
sI2
g28
sI3
g35
ssS'bal,org'
p283
(dp284
I9
g21
sI2
g5
sI3
g11
ssS'com,fac'
p285
(dp286
I17
g10
ssS'mon,org'
p287
(dp288
I2
g5
sI3
g11
ssS'loc,veh'
p289
(dp290
I17
g14
sI3
g35
ssS'gpe,veh'
p291
(dp292
I17
g14
sI3
g35
ssS'val,gpe'
p293
(dp294
I10
g40
ssS'gpe,crm'
p295
(dp296
I2
g28
ssS'sid,law'
p297
(dp298
I2
g28
ssS'res,sid'
p299
(dp300
I2
g5
ssS'veh,val'
p301
(dp302
I8
g84
sI9
g21
sI10
g85
ssS'val,com'
p303
(dp304
I8
g38
sI9
g39
sI10
g40
ssS'per,sid'
p305
(dp306
I2
g5
sI4
S'Person,EntityOrFiller'
p307
ssS'fac,sid'
p308
(dp309
I2
g5
sI3
g11
ssS'per,gpe'
p310
(dp311
I2
g5
sI4
g307
sI7
g46
sI11
g263
sI13
g264
sI17
g10
ssS'per,com'
p312
(dp313
I3
g35
ssS'bal,per'
p314
(dp315
I2
g5
sI3
g11
ssS'org,author_check'
p316
(dp317
I2
g5
ssS'bal,val'
p318
(dp319
I8
g84
sI9
g21
sI10
g85
ssS'author_check,res'
p320
(dp321
I2
g28
ssS'org,res'
p322
(dp323
I2
g28
ssS'fac,per'
p324
(dp325
I17
g14
sI2
g5
sI3
g11
ssS'loc,org'
p326
(dp327
I2
g5
sI7
g32
ssS'gpe,loc'
p328
(dp329
I2
g28
sI7
g46
ssS'author_check,law'
p330
(dp331
I2
g28
ssS'bal,fac'
p332
(dp333
I17
g10
ssS'org,law'
p334
(dp335
I2
g28
ssS'bal,gpe'
p336
(dp337
I17
g10
sI2
g5
sI3
g11
ssS'per,fac'
p338
(dp339
I17
g10
sI2
g28
sI3
g35
ssS'fac,org'
p340
(dp341
I9
g21
sI2
g5
sI3
g11
ssS'per,loc'
p342
(dp343
I17
g10
sI2
g28
sI4
g307
sI7
g46
ssS'sid,gpe'
p344
(dp345
I2
g28
sI7
g46
ssS'val,fac'
p346
(dp347
I8
g38
sI9
g39
sI10
g40
ssS'fac,veh'
p348
(dp349
I17
g14
ssS'loc,mon'
p350
(dp351
I3
g35
ssS'veh,per'
p352
(dp353
I3
g11
ssS'author_check,crm'
p354
(dp355
I2
g28
ssS'per,event'
p356
(dp357
I0
g129
sI1
g130
sI2
g28
sI7
g46
sI20
g131
sI21
g132
ssS'event,sid'
p358
(dp359
I0
g3
sI1
g4
sI2
g5
sI7
g32
sI20
g95
sI21
g96
ssS'bal,sid'
p360
(dp361
I2
g5
sI3
g11
ssS'per,bal'
p362
(dp363
I2
g28
sI3
g35
ssS'sid,loc'
p364
(dp365
I2
g28
sI7
g46
ssS'sid,per'
p366
(dp367
I2
g28
sI4
g25
ssS'loc,wea'
p368
(dp369
I17
g14
sI3
g35
ss.